(lp1
(lp2
I0
aI0
aI0
aI0
aa(lp3
I0
aI0
aI0
aI0
aa(lp4
I0
aI0
aI0
aI0
aa(lp5
I0
aI0
aI0
aI0
aa(lp6
I-1
aI-1
aI-1
aI-1
aa(lp7
I0
aI0
aI0
aI0
aa(lp8
I0
aI0
aI0
aI0
aa(lp9
I3
aI2
aI0
aI0
aa(lp10
I0
aI0
aI0
aI0
aa(lp11
I71
aI45
aI0
aI0
aa(lp12
I8
aI6
aI0
aI0
aa(lp13
I0
aI0
aI0
aI0
aa(lp14
I0
aI0
aI0
aI0
aa(lp15
I0
aI0
aI0
aI0
aa(lp16
I0
aI0
aI0
aI0
aa(lp17
I0
aI0
aI0
aI0
aa(lp18
I0
aI0
aI0
aI0
aa(lp19
I7
aI6
aI0
aI0
aa(lp20
I0
aI0
aI0
aI0
aa(lp21
I0
aI0
aI0
aI0
aa(lp22
I2
aI1
aI0
aI0
aa(lp23
I0
aI0
aI0
aI0
aa(lp24
I2
aI1
aI0
aI0
aa(lp25
I0
aI0
aI0
aI0
aa(lp26
I0
aI0
aI0
aI0
aa(lp27
I0
aI0
aI0
aI0
aa(lp28
I2
aI1
aI0
aI0
aa(lp29
I0
aI0
aI0
aI0
aa(lp30
I19
aI12
aI0
aI0
aa(lp31
I0
aI0
aI0
aI0
aa(lp32
I4
aI3
aI0
aI0
aa(lp33
I0
aI0
aI0
aI0
aa(lp34
I0
aI0
aI0
aI0
aa(lp35
I4
aI2
aI0
aI0
aa(lp36
I0
aI0
aI0
aI0
aa(lp37
I0
aI0
aI0
aI0
aa(lp38
I0
aI0
aI0
aI0
aa(lp39
I2
aI1
aI0
aI0
aa(lp40
I0
aI0
aI0
aI0
aa(lp41
I4
aI3
aI0
aI0
aa(lp42
I0
aI0
aI0
aI0
aa(lp43
I0
aI0
aI0
aI0
aa(lp44
I0
aI0
aI0
aI0
aa(lp45
I0
aI0
aI0
aI0
aa(lp46
I0
aI0
aI0
aI0
aa(lp47
I0
aI0
aI0
aI0
aa(lp48
I0
aI0
aI0
aI0
aa(lp49
I0
aI0
aI0
aI0
aa.